target datalayout = "e-m:e-p270:32:32-p271:32:32-p272:64:64-i64:64-i128:128-f80:128-n8:16:32:64-S128"
target triple = "x86_64-pc-linux-gnu"

%struct.redisContextFuncs = type { ptr, ptr, ptr, ptr, ptr, ptr }
%struct.redisContext = type { ptr, i32, [128 x i8], i32, i32, ptr, ptr, i32, ptr, ptr, %struct.anon, %struct.anon.0, ptr, i64, ptr, ptr, ptr, ptr }
%struct.anon = type { ptr, ptr, i32 }
%struct.anon.0 = type { ptr }
%struct.redisReader = type { i32, [128 x i8], ptr, i64, i64, i64, i64, ptr, i32, i32, ptr, ptr, ptr }

; Function Attrs: nounwind uwtable
define void @__redisSetError(ptr noundef %0, i32 noundef %1, ptr noundef %2) #0 {
  %4 = alloca ptr, align 8
  %5 = alloca i32, align 4
  %6 = alloca ptr, align 8
  %7 = alloca i64, align 8
  store ptr %0, ptr %4, align 8, !tbaa !40
  store i32 %1, ptr %5, align 4, !tbaa !29
  store ptr %2, ptr %6, align 8, !tbaa !26
  call void @llvm.lifetime.start.p0(i64 8, ptr %7) #10
  %8 = load i32, ptr %5, align 4, !tbaa !29
  %9 = load ptr, ptr %4, align 8, !tbaa !40
  %10 = getelementptr inbounds nuw %struct.redisContext, ptr %9, i32 0, i32 1
  store i32 %8, ptr %10, align 8, !tbaa !42
  %11 = load ptr, ptr %6, align 8, !tbaa !26
  %12 = icmp ne ptr %11, null
  br i1 %12, label %13, label %32

13:                                               ; preds = %3
  %14 = load ptr, ptr %6, align 8, !tbaa !26
  %15 = call i64 @strlen(ptr noundef %14) #11
  store i64 %15, ptr %7, align 8, !tbaa !19
  %16 = load i64, ptr %7, align 8, !tbaa !19
  %17 = icmp ult i64 %16, 127
  br i1 %17, label %18, label %20

18:                                               ; preds = %13
  %19 = load i64, ptr %7, align 8, !tbaa !19
  br label %21

20:                                               ; preds = %13
  br label %21

21:                                               ; preds = %20, %18
  %22 = phi i64 [ %19, %18 ], [ 127, %20 ]
  store i64 %22, ptr %7, align 8, !tbaa !19
  %23 = load ptr, ptr %4, align 8, !tbaa !40
  %24 = getelementptr inbounds nuw %struct.redisContext, ptr %23, i32 0, i32 2
  %25 = getelementptr inbounds [128 x i8], ptr %24, i64 0, i64 0
  %26 = load ptr, ptr %6, align 8, !tbaa !26
  %27 = load i64, ptr %7, align 8, !tbaa !19
  call void @llvm.memcpy.p0.p0.i64(ptr align 4 %25, ptr align 1 %26, i64 %27, i1 false)
  %28 = load ptr, ptr %4, align 8, !tbaa !40
  %29 = getelementptr inbounds nuw %struct.redisContext, ptr %28, i32 0, i32 2
  %30 = load i64, ptr %7, align 8, !tbaa !19
  %31 = getelementptr inbounds nuw [128 x i8], ptr %29, i64 0, i64 %30
  store i8 0, ptr %31, align 1, !tbaa !30
  br label %39

32:                                               ; preds = %3
  %33 = call ptr @__errno_location() #12
  %34 = load i32, ptr %33, align 4, !tbaa !29
  %35 = load ptr, ptr %4, align 8, !tbaa !40
  %36 = getelementptr inbounds nuw %struct.redisContext, ptr %35, i32 0, i32 2
  %37 = getelementptr inbounds [128 x i8], ptr %36, i64 0, i64 0
  %38 = call i32 @__xpg_strerror_r(i32 noundef %34, ptr noundef %37, i64 noundef 128) #10
  br label %39

39:                                               ; preds = %32, %21
  call void @llvm.lifetime.end.p0(i64 8, ptr %7) #10
  ret void
}

; Function Attrs: nounwind uwtable
define i32 @redisBufferRead(ptr noundef %0) #0 {
  %2 = alloca i32, align 4
  %3 = alloca ptr, align 8
  %4 = alloca [16384 x i8], align 16
  %5 = alloca i32, align 4
  %6 = alloca i32, align 4
  store ptr %0, ptr %3, align 8, !tbaa !40
  call void @llvm.lifetime.start.p0(i64 16384, ptr %4) #10
  call void @llvm.lifetime.start.p0(i64 4, ptr %5) #10
  %7 = load ptr, ptr %3, align 8, !tbaa !40
  %8 = getelementptr inbounds nuw %struct.redisContext, ptr %7, i32 0, i32 1
  %9 = load i32, ptr %8, align 8, !tbaa !42
  %10 = icmp ne i32 %9, 0
  br i1 %10, label %11, label %12

11:                                               ; preds = %1
  store i32 -1, ptr %2, align 4
  store i32 1, ptr %6, align 4
  br label %50

12:                                               ; preds = %1
  %13 = load ptr, ptr %3, align 8, !tbaa !40
  %14 = getelementptr inbounds nuw %struct.redisContext, ptr %13, i32 0, i32 0
  %15 = load ptr, ptr %14, align 8, !tbaa !50
  %16 = getelementptr inbounds nuw %struct.redisContextFuncs, ptr %15, i32 0, i32 4
  %17 = load ptr, ptr %16, align 8, !tbaa !78
  %18 = load ptr, ptr %3, align 8, !tbaa !40
  %19 = getelementptr inbounds [16384 x i8], ptr %4, i64 0, i64 0
  %20 = call i64 %17(ptr noundef %18, ptr noundef %19, i64 noundef 16384)
  %21 = trunc i64 %20 to i32
  store i32 %21, ptr %5, align 4, !tbaa !29
  %22 = load i32, ptr %5, align 4, !tbaa !29
  %23 = icmp slt i32 %22, 0
  br i1 %23, label %24, label %25

24:                                               ; preds = %12
  store i32 -1, ptr %2, align 4
  store i32 1, ptr %6, align 4
  br label %50

25:                                               ; preds = %12
  %26 = load i32, ptr %5, align 4, !tbaa !29
  %27 = icmp sgt i32 %26, 0
  br i1 %27, label %28, label %49

28:                                               ; preds = %25
  %29 = load ptr, ptr %3, align 8, !tbaa !40
  %30 = getelementptr inbounds nuw %struct.redisContext, ptr %29, i32 0, i32 6
  %31 = load ptr, ptr %30, align 8, !tbaa !54
  %32 = getelementptr inbounds [16384 x i8], ptr %4, i64 0, i64 0
  %33 = load i32, ptr %5, align 4, !tbaa !29
  %34 = sext i32 %33 to i64
  %35 = call i32 @redisReaderFeed(ptr noundef %31, ptr noundef %32, i64 noundef %34)
  %36 = icmp ne i32 %35, 0
  br i1 %36, label %37, label %49

37:                                               ; preds = %28
  %38 = load ptr, ptr %3, align 8, !tbaa !40
  %39 = load ptr, ptr %3, align 8, !tbaa !40
  %40 = getelementptr inbounds nuw %struct.redisContext, ptr %39, i32 0, i32 6
  %41 = load ptr, ptr %40, align 8, !tbaa !54
  %42 = getelementptr inbounds nuw %struct.redisReader, ptr %41, i32 0, i32 0
  %43 = load i32, ptr %42, align 8, !tbaa !79
  %44 = load ptr, ptr %3, align 8, !tbaa !40
  %45 = getelementptr inbounds nuw %struct.redisContext, ptr %44, i32 0, i32 6
  %46 = load ptr, ptr %45, align 8, !tbaa !54
  %47 = getelementptr inbounds nuw %struct.redisReader, ptr %46, i32 0, i32 1
  %48 = getelementptr inbounds [128 x i8], ptr %47, i64 0, i64 0
  call void @__redisSetError(ptr noundef %38, i32 noundef %43, ptr noundef %48)
  store i32 -1, ptr %2, align 4
  store i32 1, ptr %6, align 4
  br label %50

49:                                               ; preds = %28, %25
  store i32 0, ptr %2, align 4
  store i32 1, ptr %6, align 4
  br label %50

50:                                               ; preds = %49, %37, %24, %11
  call void @llvm.lifetime.end.p0(i64 4, ptr %5) #10
  call void @llvm.lifetime.end.p0(i64 16384, ptr %4) #10
  %51 = load i32, ptr %2, align 4
  ret i32 %51
}