; Function Attrs: nounwind uwtable
define range(i32 -1, 1) i32 @redisBufferRead(ptr noundef %0) local_unnamed_addr #0 {
  %2 = alloca [16384 x i8], align 16
  call void @llvm.lifetime.start.p0(i64 16384, ptr nonnull %2) #13
  %3 = getelementptr inbounds nuw i8, ptr %0, i64 8
  %4 = load i32, ptr %3, align 8, !tbaa !32
  %.not = icmp eq i32 %4, 0
  br i1 %.not, label %5, label %26

5:                                                ; preds = %1
  %6 = load ptr, ptr %0, align 8, !tbaa !40
  %7 = getelementptr inbounds nuw i8, ptr %6, i64 32
  %8 = load ptr, ptr %7, align 8, !tbaa !69
  %9 = call i64 %8(ptr noundef nonnull %0, ptr noundef nonnull %2, i64 noundef 16384) #13
  %10 = trunc i64 %9 to i32
  %11 = icmp slt i32 %10, 0
  br i1 %11, label %26, label %12

12:                                               ; preds = %5
  %.not11 = icmp eq i32 %10, 0
  br i1 %.not11, label %26, label %13

13:                                               ; preds = %12
  %14 = getelementptr inbounds nuw i8, ptr %0, i64 160
  %15 = load ptr, ptr %14, align 8, !tbaa !44
  %16 = and i64 %9, 2147483647
  %17 = call i32 @redisReaderFeed(ptr noundef %15, ptr noundef nonnull %2, i64 noundef %16) #13
  %.not12 = icmp eq i32 %17, 0
  br i1 %.not12, label %26, label %18

18:                                               ; preds = %13
  %19 = load ptr, ptr %14, align 8, !tbaa !44
  %20 = load i32, ptr %19, align 8, !tbaa !70
  %21 = getelementptr inbounds nuw i8, ptr %19, i64 4
  store i32 %20, ptr %3, align 8, !tbaa !32
  %22 = getelementptr inbounds nuw i8, ptr %0, i64 12
  %23 = call i64 @strlen(ptr noundef nonnull readonly dereferenceable(1) %21) #14
  %24 = call i64 @llvm.umin.i64(i64 %23, i64 127)
  call void @llvm.memcpy.p0.p0.i64(ptr nonnull align 4 %22, ptr nonnull readonly align 1 %21, i64 %24, i1 false)
  %25 = getelementptr inbounds nuw [128 x i8], ptr %22, i64 0, i64 %24
  store i8 0, ptr %25, align 1, !tbaa !22
  br label %26

26:                                               ; preds = %12, %13, %5, %1, %18
  %.0 = phi i32 [ -1, %18 ], [ -1, %1 ], [ -1, %5 ], [ 0, %13 ], [ 0, %12 ]
  call void @llvm.lifetime.end.p0(i64 16384, ptr nonnull %2) #13
  ret i32 %.0
}